; Function Attrs: mustprogress nounwind uwtable
define noundef nonnull align 8 dereferenceable(20) ptr @_ZN6icu_776number5ScaleaSEOS1_(ptr noundef nonnull returned align 8 dereferenceable(20) initializes((0, 4)) %0, ptr noundef nonnull align 8 captures(none) dereferenceable(20) %1) local_unnamed_addr #0 align 2 personality ptr @__gxx_personality_v0 {
  %3 = load i32, ptr %1, align 8, !tbaa !15
  store i32 %3, ptr %0, align 8, !tbaa !15
  %4 = getelementptr inbounds nuw i8, ptr %0, i64 8
  %5 = load ptr, ptr %4, align 8, !tbaa !18
  %6 = icmp eq ptr %5, null
  br i1 %6, label %15, label %7

7:                                                ; preds = %2
  %8 = getelementptr inbounds nuw i8, ptr %5, i64 12
  %9 = load i8, ptr %8, align 4, !tbaa !26
  %.not.i.i.i = icmp eq i8 %9, 0
  br i1 %.not.i.i.i, label %_ZN6icu_776number4impl6DecNumD2Ev.exit, label %10

10:                                               ; preds = %7
  %11 = load ptr, ptr %5, align 8, !tbaa !20
  invoke void @uprv_free_77(ptr noundef %11)
          to label %_ZN6icu_776number4impl6DecNumD2Ev.exit unwind label %12

12:                                               ; preds = %10
  %13 = landingpad { ptr, i32 }
          catch ptr null
  %14 = extractvalue { ptr, i32 } %13, 0
  tail call void @__clang_call_terminate(ptr %14) #15
  unreachable

_ZN6icu_776number4impl6DecNumD2Ev.exit:           ; preds = %7, %10
  tail call void @_ZN6icu_777UMemorydlEPv(ptr noundef nonnull %5) #13
  br label %15

15:                                               ; preds = %_ZN6icu_776number4impl6DecNumD2Ev.exit, %2
  %16 = getelementptr inbounds nuw i8, ptr %1, i64 8
  %17 = load ptr, ptr %16, align 8, !tbaa !18
  store ptr %17, ptr %4, align 8, !tbaa !18
  %18 = getelementptr inbounds nuw i8, ptr %1, i64 16
  %19 = load i32, ptr %18, align 8, !tbaa !19
  %20 = getelementptr inbounds nuw i8, ptr %0, i64 16
  store i32 %19, ptr %20, align 8, !tbaa !19
  store ptr null, ptr %16, align 8, !tbaa !18
  ret ptr %0
}